target datalayout = "e-m:e-p270:32:32-p271:32:32-p272:64:64-i64:64-i128:128-f80:128-n8:16:32:64-S128"
target triple = "x86_64-pc-linux-gnu"

%struct._PySemaphore = type { %union.sem_t }
%union.sem_t = type { i64, [24 x i8] }

@__func__._PySemaphore_Init = private unnamed_addr constant [18 x i8] c"_PySemaphore_Init\00", align 1
@.str = private unnamed_addr constant [29 x i8] c"parking_lot: sem_init failed\00", align 1

; Function Attrs: nounwind uwtable
define dso_local void @_PySemaphore_Init(ptr noundef %0) #0 {
  %2 = alloca ptr, align 8
  store ptr %0, ptr %2, align 8, !tbaa !4
  %3 = load ptr, ptr %2, align 8, !tbaa !4
  %4 = getelementptr inbounds nuw %struct._PySemaphore, ptr %3, i32 0, i32 0
  %5 = call i32 @sem_init(ptr noundef %4, i32 noundef 0, i32 noundef 0) #9
  %6 = icmp slt i32 %5, 0
  br i1 %6, label %7, label %8

7:                                                ; preds = %1
  call void @_Py_FatalErrorFunc(ptr noundef @__func__._PySemaphore_Init, ptr noundef @.str) #10
  unreachable

8:                                                ; preds = %1
  ret void
}