; Function Attrs: nounwind uwtable
define dso_local void @_PySemaphore_Init(ptr noundef %0) local_unnamed_addr #0 {
  %2 = tail call i32 @sem_init(ptr noundef %0, i32 noundef 0, i32 noundef 0) #9
  %3 = icmp slt i32 %2, 0
  br i1 %3, label %4, label %5

4:                                                ; preds = %1
  tail call void @_Py_FatalErrorFunc(ptr noundef nonnull @__func__._PySemaphore_Init, ptr noundef nonnull @.str) #10
  unreachable

5:                                                ; preds = %1
  ret void
}